; Function Attrs: mustprogress nounwind uwtable
define dso_local void @_ZN32cmCTestResourceGroupsLexerHelperC2ERSt6vectorIS0_IN18cmCTestTestHandler30cmCTestTestResourceRequirementESaIS2_EESaIS4_EE(ptr noundef nonnull align 8 dereferenceable(80) initializes((0, 12)) %0, ptr noundef nonnull align 8 dereferenceable(24) %1) unnamed_addr #3 align 2 {
  store ptr %1, ptr %0, align 8
  %3 = getelementptr inbounds nuw i8, ptr %0, i64 8
  store i32 1, ptr %3, align 8
  %4 = getelementptr inbounds nuw i8, ptr %0, i64 16
  tail call void @_ZNSt7__cxx1112basic_stringIcSt11char_traitsIcESaIcEEC1Ev(ptr noundef nonnull align 8 dereferenceable(32) %4) #16
  %5 = getelementptr inbounds nuw i8, ptr %0, i64 56
  tail call void @llvm.memset.p0.i64(ptr noundef nonnull align 8 dereferenceable(24) %5, i8 0, i64 24, i1 false)
  ret void
}